; Function Attrs: mustprogress uwtable
define hidden noundef ptr @_ZN10bv_factory12mk_num_valueERK8rationalj(ptr noundef nonnull align 8 dereferenceable(112) %0, ptr noundef nonnull align 8 dereferenceable(32) %1, i32 noundef %2) local_unnamed_addr #3 align 2 {
  %4 = alloca i8, align 1
  %5 = getelementptr inbounds nuw i8, ptr %0, i64 88
  %6 = tail call noundef ptr @_ZN7bv_util7mk_sortEj(ptr noundef nonnull align 8 dereferenceable(24) %5, i32 noundef %2)
  call void @llvm.lifetime.start.p0(i64 1, ptr nonnull %4) #20
  %7 = call noundef ptr @_ZN14simple_factoryI8rationalE8mk_valueERKS0_P4sortRb(ptr noundef nonnull align 8 dereferenceable(88) %0, ptr noundef nonnull align 8 dereferenceable(32) %1, ptr noundef %6, ptr noundef nonnull align 1 dereferenceable(1) %4)
  call void @llvm.lifetime.end.p0(i64 1, ptr nonnull %4) #20
  ret ptr %7
}